; ModuleID = '54/405.c'
source_filename = "54/405.c"
target datalayout = "e-m:e-p270:32:32-p271:32:32-p272:64:64-i64:64-f80:128-n8:16:32:64-S128"
target triple = "x86_64-pc-linux-gnu"

@.str = private unnamed_addr constant [5 x i8] c"%d%d\00", align 1
@.str.1 = private unnamed_addr constant [4 x i8] c"%d\0A\00", align 1

; Function Attrs: noinline nounwind uwtable
define dso_local void @main() #0 {
  %1 = alloca i32, align 4
  %2 = alloca i32, align 4
  %3 = alloca i32, align 4
  %4 = alloca i32, align 4
  %5 = alloca i32, align 4
  store i32 1, i32* %3, align 4
  store i32 1, i32* %5, align 4
  %6 = call i32 (i8*, ...) @__isoc99_scanf(i8* getelementptr inbounds ([5 x i8], [5 x i8]* @.str, i64 0, i64 0), i32* %1, i32* %2)
  store i32 1, i32* %4, align 4
  br label %7

7:                                                ; preds = %26, %0
  %8 = load i32, i32* %3, align 4
  %9 = load i32, i32* %1, align 4
  %10 = icmp slt i32 %8, %9
  br i1 %10, label %11, label %37

11:                                               ; preds = %7
  br label %12

12:                                               ; preds = %22, %11
  %13 = load i32, i32* %1, align 4
  %14 = load i32, i32* %4, align 4
  %15 = mul nsw i32 %13, %14
  %16 = load i32, i32* %2, align 4
  %17 = add nsw i32 %15, %16
  %18 = load i32, i32* %1, align 4
  %19 = sub nsw i32 %18, 1
  %20 = srem i32 %17, %19
  %21 = icmp ne i32 %20, 0
  br i1 %21, label %22, label %26

22:                                               ; preds = %12
  %23 = load i32, i32* %5, align 4
  %24 = add nsw i32 %23, 1
  store i32 %24, i32* %5, align 4
  %25 = load i32, i32* %5, align 4
  store i32 %25, i32* %4, align 4
  store i32 1, i32* %3, align 4
  br label %12

26:                                               ; preds = %12
  %27 = load i32, i32* %1, align 4
  %28 = load i32, i32* %4, align 4
  %29 = mul nsw i32 %27, %28
  %30 = load i32, i32* %2, align 4
  %31 = add nsw i32 %29, %30
  %32 = load i32, i32* %1, align 4
  %33 = sub nsw i32 %32, 1
  %34 = sdiv i32 %31, %33
  store i32 %34, i32* %4, align 4
  %35 = load i32, i32* %3, align 4
  %36 = add nsw i32 %35, 1
  store i32 %36, i32* %3, align 4
  br label %7

37:                                               ; preds = %7
  %38 = load i32, i32* %1, align 4
  %39 = load i32, i32* %4, align 4
  %40 = mul nsw i32 %38, %39
  %41 = load i32, i32* %2, align 4
  %42 = add nsw i32 %40, %41
  %43 = call i32 (i8*, ...) @printf(i8* getelementptr inbounds ([4 x i8], [4 x i8]* @.str.1, i64 0, i64 0), i32 %42)
  ret void
}

declare dso_local i32 @__isoc99_scanf(i8*, ...) #1

declare dso_local i32 @printf(i8*, ...) #1


!llvm.module.flags = !{!0}
!llvm.ident = !{!1}

!0 = !{i32 1, !"wchar_size", i32 4}
!1 = !{!"clang version 10.0.0-4ubuntu1 "}
