; ModuleID = 'source-C-CXX/53/405.c'
source_filename = "source-C-CXX/53/405.c"
target datalayout = "e-m:e-p270:32:32-p271:32:32-p272:64:64-i64:64-f80:128-n8:16:32:64-S128"
target triple = "x86_64-pc-linux-gnu"

@.str = private unnamed_addr constant [5 x i8] c"%d%d\00", align 1
@.str.1 = private unnamed_addr constant [4 x i8] c"%d\0A\00", align 1

; Function Attrs: nofree nounwind sspstrong uwtable
define dso_local void @main() local_unnamed_addr #0 {
  %1 = alloca i32, align 4
  %2 = alloca i32, align 4
  %3 = bitcast i32* %1 to i8*
  call void @llvm.lifetime.start.p0i8(i64 4, i8* nonnull %3) #3
  %4 = bitcast i32* %2 to i8*
  call void @llvm.lifetime.start.p0i8(i64 4, i8* nonnull %4) #3
  %5 = call i32 (i8*, ...) @__isoc99_scanf(i8* getelementptr inbounds ([5 x i8], [5 x i8]* @.str, i64 0, i64 0), i32* nonnull %1, i32* nonnull %2)
  %6 = load i32, i32* %1, align 4, !tbaa !5
  %7 = load i32, i32* %2, align 4
  %8 = add nsw i32 %6, -1
  %9 = icmp sgt i32 %6, 1
  br i1 %9, label %10, label %32

10:                                               ; preds = %0, %25
  %11 = phi i32 [ %27, %25 ], [ 1, %0 ]
  %12 = phi i32 [ %29, %25 ], [ 1, %0 ]
  %13 = phi i32 [ %30, %25 ], [ 1, %0 ]
  %14 = mul nsw i32 %12, %6
  %15 = add nsw i32 %7, %14
  %16 = srem i32 %15, %8
  %17 = icmp eq i32 %16, 0
  br i1 %17, label %25, label %18

18:                                               ; preds = %10, %18
  %19 = phi i32 [ %20, %18 ], [ %11, %10 ]
  %20 = add nsw i32 %19, 1
  %21 = mul nsw i32 %20, %6
  %22 = add nsw i32 %7, %21
  %23 = srem i32 %22, %8
  %24 = icmp eq i32 %23, 0
  br i1 %24, label %25, label %18, !llvm.loop !9

25:                                               ; preds = %18, %10
  %26 = phi i32 [ %13, %10 ], [ 1, %18 ]
  %27 = phi i32 [ %11, %10 ], [ %20, %18 ]
  %28 = phi i32 [ %15, %10 ], [ %22, %18 ]
  %29 = sdiv i32 %28, %8
  %30 = add nsw i32 %26, 1
  %31 = icmp slt i32 %30, %6
  br i1 %31, label %10, label %32, !llvm.loop !12

32:                                               ; preds = %25, %0
  %33 = phi i32 [ 1, %0 ], [ %29, %25 ]
  %34 = mul nsw i32 %6, %33
  %35 = add nsw i32 %7, %34
  %36 = call i32 (i8*, ...) @printf(i8* nonnull dereferenceable(1) getelementptr inbounds ([4 x i8], [4 x i8]* @.str.1, i64 0, i64 0), i32 %35)
  call void @llvm.lifetime.end.p0i8(i64 4, i8* nonnull %4) #3
  call void @llvm.lifetime.end.p0i8(i64 4, i8* nonnull %3) #3
  ret void
}

; Function Attrs: argmemonly mustprogress nofree nosync nounwind willreturn
declare void @llvm.lifetime.start.p0i8(i64 immarg, i8* nocapture) #1

; Function Attrs: nofree nounwind
declare noundef i32 @__isoc99_scanf(i8* nocapture noundef readonly, ...) local_unnamed_addr #2

; Function Attrs: nofree nounwind
declare noundef i32 @printf(i8* nocapture noundef readonly, ...) local_unnamed_addr #2

; Function Attrs: argmemonly mustprogress nofree nosync nounwind willreturn
declare void @llvm.lifetime.end.p0i8(i64 immarg, i8* nocapture) #1


!llvm.module.flags = !{!0, !1, !2, !3}
!llvm.ident = !{!4}

!0 = !{i32 1, !"wchar_size", i32 4}
!1 = !{i32 7, !"PIC Level", i32 2}
!2 = !{i32 7, !"PIE Level", i32 2}
!3 = !{i32 7, !"uwtable", i32 1}
!4 = !{!"clang version 13.0.0"}
!5 = !{!6, !6, i64 0}
!6 = !{!"int", !7, i64 0}
!7 = !{!"omnipotent char", !8, i64 0}
!8 = !{!"Simple C/C++ TBAA"}
!9 = distinct !{!9, !10, !11}
!10 = !{!"llvm.loop.mustprogress"}
!11 = !{!"llvm.loop.peeled.count", i32 1}
!12 = distinct !{!12, !10}
